target datalayout = "e-m:e-p270:32:32-p271:32:32-p272:64:64-i64:64-i128:128-f80:128-n8:16:32:64-S128"
target triple = "x86_64-pc-linux-gnu"

%struct.mbedtls_ssl_context = type { ptr, i32, i32, i32, i32, i32, ptr, ptr, ptr, ptr, ptr, ptr, ptr, ptr, ptr, ptr, ptr, ptr, ptr, ptr, ptr, ptr, ptr, ptr, ptr, ptr, ptr, ptr, ptr, ptr, ptr, ptr, ptr, i32, i64, i64, i16, i64, i64, i64, i64, i32, i32, i8, i8, i32, i8, ptr, ptr, ptr, ptr, ptr, ptr, ptr, i32, i64, i64, [8 x i8], i16, ptr, ptr, ptr, i64, i32, i64, [12 x i8], [12 x i8], [32 x i8], i8, i8, ptr, ptr, %union.mbedtls_ssl_user_data_t }
%union.mbedtls_ssl_user_data_t = type { i64 }
%struct.mbedtls_mpi = type { ptr, i16, i16 }
%struct.mbedtls_ssl_handshake_params = type { i8, i8, i8, i8, i8, i32, i8, i8, i8, i8, ptr, ptr, ptr, ptr, ptr, i8, i8, i8, i8, i16, i16, [20 x i16], ptr, ptr, %struct.mbedtls_dhm_context, %struct.mbedtls_ecdh_context, i16, i64, i32, i8, [1024 x i8], i64, ptr, ptr, i64, i16, ptr, ptr, ptr, ptr, %struct.anon, ptr, i16, i8, i32, i32, i32, ptr, ptr, ptr, i32, ptr, [8 x i8], i8, [32 x i8], i8, i16, %struct.mbedtls_md_context_t, %struct.mbedtls_md_context_t, i16, i8, %union.anon.1, [64 x i8], [1076 x i8], i64, i32, i32, i8, ptr, ptr, %union.anon.4, %struct.mbedtls_ssl_tls13_handshake_secrets, ptr, i64, ptr }
%struct.mbedtls_dhm_context = type { %struct.mbedtls_mpi, %struct.mbedtls_mpi, %struct.mbedtls_mpi, %struct.mbedtls_mpi, %struct.mbedtls_mpi, %struct.mbedtls_mpi, %struct.mbedtls_mpi, %struct.mbedtls_mpi, %struct.mbedtls_mpi, %struct.mbedtls_mpi }
%struct.mbedtls_ecdh_context = type { i8, i32, i32, %union.anon }
%union.anon = type { %struct.mbedtls_ecdh_context_mbed }
%struct.mbedtls_ecdh_context_mbed = type { %struct.mbedtls_ecp_group, %struct.mbedtls_mpi, %struct.mbedtls_ecp_point, %struct.mbedtls_ecp_point, %struct.mbedtls_mpi }
%struct.mbedtls_ecp_group = type { i32, %struct.mbedtls_mpi, %struct.mbedtls_mpi, %struct.mbedtls_mpi, %struct.mbedtls_ecp_point, %struct.mbedtls_mpi, i64, i64, i32, ptr, ptr, ptr, ptr, ptr, i64 }
%struct.mbedtls_ecp_point = type { %struct.mbedtls_mpi, %struct.mbedtls_mpi, %struct.mbedtls_mpi }
%struct.anon = type { i64, i8, [4 x %struct.mbedtls_ssl_hs_buffer], %struct.anon.0 }
%struct.mbedtls_ssl_hs_buffer = type { i8, ptr, i64 }
%struct.anon.0 = type { ptr, i64, i32 }
%struct.mbedtls_md_context_t = type { ptr, ptr, ptr }
%union.anon.1 = type { %struct.anon.2 }
%struct.anon.2 = type { i8, [64 x i8], i64 }
%union.anon.4 = type { [64 x i8] }
%struct.mbedtls_ssl_tls13_handshake_secrets = type { [64 x i8], [64 x i8] }

@.str = private unnamed_addr constant [130 x i8] c"generated/home/dtcxzyw/WorkSpace/Projects/compilers/llvm-opt-benchmark/bench/lief/bench_build/mbed_src/library/ssl_tls12_server.c\00", align 1
@.str.148 = private unnamed_addr constant [32 x i8] c"bad client key exchange message\00", align 1
@.str.160 = private unnamed_addr constant [24 x i8] c"mbedtls_dhm_read_public\00", align 1
@.str.161 = private unnamed_addr constant [8 x i8] c"DHM: GY\00", align 1

; Function Attrs: alwaysinline nounwind uwtable
define internal zeroext i16 @mbedtls_get_unaligned_uint16(ptr noundef %0) #7 {
  %2 = alloca ptr, align 8
  %3 = alloca i16, align 2
  store ptr %0, ptr %2, align 8, !tbaa !35
  call void @llvm.lifetime.start.p0(i64 2, ptr %3) #10
  %4 = load ptr, ptr %2, align 8, !tbaa !35
  call void @llvm.memcpy.p0.p0.i64(ptr align 2 %3, ptr align 1 %4, i64 2, i1 false)
  %5 = load i16, ptr %3, align 2, !tbaa !106
  call void @llvm.lifetime.end.p0(i64 2, ptr %3) #10
  ret i16 %5
}

; Function Attrs: nounwind uwtable
define internal i32 @ssl_parse_client_dh_public(ptr noundef %0, ptr noundef %1, ptr noundef %2) #0 {
  %4 = alloca i32, align 4
  %5 = alloca ptr, align 8
  %6 = alloca ptr, align 8
  %7 = alloca ptr, align 8
  %8 = alloca i32, align 4
  %9 = alloca i64, align 8
  %10 = alloca i32, align 4
  store ptr %0, ptr %5, align 8, !tbaa !3
  store ptr %1, ptr %6, align 8, !tbaa !195
  store ptr %2, ptr %7, align 8, !tbaa !8
  call void @llvm.lifetime.start.p0(i64 4, ptr %8) #10
  store i32 -28800, ptr %8, align 4, !tbaa !39
  call void @llvm.lifetime.start.p0(i64 8, ptr %9) #10
  %11 = load ptr, ptr %6, align 8, !tbaa !195
  %12 = load ptr, ptr %11, align 8, !tbaa !8
  %13 = getelementptr inbounds i8, ptr %12, i64 2
  %14 = load ptr, ptr %7, align 8, !tbaa !8
  %15 = icmp ugt ptr %13, %14
  br i1 %15, label %16, label %18

16:                                               ; preds = %3
  %17 = load ptr, ptr %5, align 8, !tbaa !3
  call void (ptr, i32, ptr, i32, ptr, ...) @mbedtls_debug_print_msg(ptr noundef %17, i32 noundef 1, ptr noundef @.str, i32 noundef 3392, ptr noundef @.str.148)
  store i32 -29440, ptr %4, align 4
  store i32 1, ptr %10, align 4
  br label %62

18:                                               ; preds = %3
  %19 = load ptr, ptr %6, align 8, !tbaa !195
  %20 = load ptr, ptr %19, align 8, !tbaa !8
  %21 = getelementptr inbounds i8, ptr %20, i64 0
  %22 = call zeroext i16 @mbedtls_get_unaligned_uint16(ptr noundef %21)
  %23 = call i16 @llvm.bswap.i16(i16 %22)
  %24 = zext i16 %23 to i32
  %25 = sext i32 %24 to i64
  store i64 %25, ptr %9, align 8, !tbaa !10
  %26 = load ptr, ptr %6, align 8, !tbaa !195
  %27 = load ptr, ptr %26, align 8, !tbaa !8
  %28 = getelementptr inbounds i8, ptr %27, i64 2
  store ptr %28, ptr %26, align 8, !tbaa !8
  %29 = load ptr, ptr %6, align 8, !tbaa !195
  %30 = load ptr, ptr %29, align 8, !tbaa !8
  %31 = load i64, ptr %9, align 8, !tbaa !10
  %32 = getelementptr inbounds nuw i8, ptr %30, i64 %31
  %33 = load ptr, ptr %7, align 8, !tbaa !8
  %34 = icmp ugt ptr %32, %33
  br i1 %34, label %35, label %37

35:                                               ; preds = %18
  %36 = load ptr, ptr %5, align 8, !tbaa !3
  call void (ptr, i32, ptr, i32, ptr, ...) @mbedtls_debug_print_msg(ptr noundef %36, i32 noundef 1, ptr noundef @.str, i32 noundef 3400, ptr noundef @.str.148)
  store i32 -29440, ptr %4, align 4
  store i32 1, ptr %10, align 4
  br label %62

37:                                               ; preds = %18
  %38 = load ptr, ptr %5, align 8, !tbaa !3
  %39 = getelementptr inbounds nuw %struct.mbedtls_ssl_context, ptr %38, i32 0, i32 16
  %40 = load ptr, ptr %39, align 8, !tbaa !41
  %41 = getelementptr inbounds nuw %struct.mbedtls_ssl_handshake_params, ptr %40, i32 0, i32 24
  %42 = load ptr, ptr %6, align 8, !tbaa !195
  %43 = load ptr, ptr %42, align 8, !tbaa !8
  %44 = load i64, ptr %9, align 8, !tbaa !10
  %45 = call i32 @mbedtls_dhm_read_public(ptr noundef %41, ptr noundef %43, i64 noundef %44)
  store i32 %45, ptr %8, align 4, !tbaa !39
  %46 = icmp ne i32 %45, 0
  br i1 %46, label %47, label %50

47:                                               ; preds = %37
  %48 = load ptr, ptr %5, align 8, !tbaa !3
  %49 = load i32, ptr %8, align 4, !tbaa !39
  call void @mbedtls_debug_print_ret(ptr noundef %48, i32 noundef 1, ptr noundef @.str, i32 noundef 3405, ptr noundef @.str.160, i32 noundef %49)
  store i32 -29440, ptr %4, align 4
  store i32 1, ptr %10, align 4
  br label %62

50:                                               ; preds = %37
  %51 = load i64, ptr %9, align 8, !tbaa !10
  %52 = load ptr, ptr %6, align 8, !tbaa !195
  %53 = load ptr, ptr %52, align 8, !tbaa !8
  %54 = getelementptr inbounds nuw i8, ptr %53, i64 %51
  store ptr %54, ptr %52, align 8, !tbaa !8
  %55 = load ptr, ptr %5, align 8, !tbaa !3
  %56 = load ptr, ptr %5, align 8, !tbaa !3
  %57 = getelementptr inbounds nuw %struct.mbedtls_ssl_context, ptr %56, i32 0, i32 16
  %58 = load ptr, ptr %57, align 8, !tbaa !41
  %59 = getelementptr inbounds nuw %struct.mbedtls_ssl_handshake_params, ptr %58, i32 0, i32 24
  %60 = getelementptr inbounds nuw %struct.mbedtls_dhm_context, ptr %59, i32 0, i32 4
  call void @mbedtls_debug_print_mpi(ptr noundef %55, i32 noundef 3, ptr noundef @.str, i32 noundef 3411, ptr noundef @.str.161, ptr noundef %60)
  %61 = load i32, ptr %8, align 4, !tbaa !39
  store i32 %61, ptr %4, align 4
  store i32 1, ptr %10, align 4
  br label %62

62:                                               ; preds = %50, %47, %35, %16
  call void @llvm.lifetime.end.p0(i64 8, ptr %9) #10
  call void @llvm.lifetime.end.p0(i64 4, ptr %8) #10
  %63 = load i32, ptr %4, align 4
  ret i32 %63
}