; Function Attrs: nounwind uwtable
define internal fastcc range(i32 -29440, 1) i32 @ssl_parse_client_dh_public(ptr noundef %0, ptr noundef nonnull captures(none) %1, ptr noundef readnone %2) unnamed_addr #5 {
  %4 = load ptr, ptr %1, align 8, !tbaa !88
  %5 = getelementptr inbounds nuw i8, ptr %4, i64 2
  %6 = icmp ugt ptr %5, %2
  br i1 %6, label %7, label %8

7:                                                ; preds = %3
  tail call void (ptr, i32, ptr, i32, ptr, ...) @mbedtls_debug_print_msg(ptr noundef %0, i32 noundef 1, ptr noundef nonnull @.str, i32 noundef 3392, ptr noundef nonnull @.str.148) #12
  br label %25

8:                                                ; preds = %3
  %.0.copyload.i = load i16, ptr %4, align 1
  %9 = tail call i16 @llvm.bswap.i16(i16 %.0.copyload.i)
  %10 = zext i16 %9 to i64
  store ptr %5, ptr %1, align 8, !tbaa !88
  %11 = getelementptr inbounds nuw i8, ptr %5, i64 %10
  %12 = icmp ugt ptr %11, %2
  br i1 %12, label %13, label %14

13:                                               ; preds = %8
  tail call void (ptr, i32, ptr, i32, ptr, ...) @mbedtls_debug_print_msg(ptr noundef %0, i32 noundef 1, ptr noundef nonnull @.str, i32 noundef 3400, ptr noundef nonnull @.str.148) #12
  br label %25

14:                                               ; preds = %8
  %15 = getelementptr inbounds nuw i8, ptr %0, i64 112
  %16 = load ptr, ptr %15, align 8, !tbaa !45
  %17 = getelementptr inbounds nuw i8, ptr %16, i64 120
  %18 = tail call i32 @mbedtls_dhm_read_public(ptr noundef nonnull %17, ptr noundef nonnull %5, i64 noundef %10) #12
  %.not = icmp eq i32 %18, 0
  br i1 %.not, label %20, label %19

19:                                               ; preds = %14
  tail call void @mbedtls_debug_print_ret(ptr noundef nonnull %0, i32 noundef 1, ptr noundef nonnull @.str, i32 noundef 3405, ptr noundef nonnull @.str.160, i32 noundef %18) #12
  br label %25

20:                                               ; preds = %14
  %21 = load ptr, ptr %1, align 8, !tbaa !88
  %22 = getelementptr inbounds nuw i8, ptr %21, i64 %10
  store ptr %22, ptr %1, align 8, !tbaa !88
  %23 = load ptr, ptr %15, align 8, !tbaa !45
  %24 = getelementptr inbounds nuw i8, ptr %23, i64 184
  tail call void @mbedtls_debug_print_mpi(ptr noundef nonnull %0, i32 noundef 3, ptr noundef nonnull @.str, i32 noundef 3411, ptr noundef nonnull @.str.161, ptr noundef nonnull %24) #12
  br label %25

25:                                               ; preds = %20, %19, %13, %7
  %.0 = phi i32 [ -29440, %7 ], [ -29440, %13 ], [ -29440, %19 ], [ 0, %20 ]
  ret i32 %.0
}